Certificate:
    Data:
        Version: 3 (0x2)
        Serial Number:
            8e:70:77:ac:31:b5:58:60
    Signature Algorithm: sha256WithRSAEncryption
        Issuer: C=AU, ST=Some-State, O=Internet Widgits Pty Ltd
        Validity
            Not Before: Sep  1 12:26:14 2017 GMT
            Not After : Oct  1 12:26:14 2017 GMT
        Subject: C=AU, ST=Some-State, O=Internet Widgits Pty Ltd
        Subject Public Key Info:
            Public Key Algorithm: rsaEncryption
                Public-Key: (2048 bit)
                Modulus:
                    00:a1:fd:ea:67:91:a7:e2:61:28:31:7c:a2:b0:d1:
                    13:ae:f8:d0:15:e7:11:ac:06:cd:1d:26:da:e8:7f:
                    b2:29:44:b5:60:70:86:eb:6b:2d:ee:20:35:90:e8:
                    5d:f3:24:d4:ff:49:f0:e5:a7:47:c5:68:22:cc:0e:
                    c3:11:88:3f:dd:26:fa:22:c4:8d:f7:b8:b1:e8:ac:
                    5a:05:c1:d7:d2:84:0c:00:6c:86:58:f9:ed:0d:a3:
                    ea:7b:3c:46:45:13:86:1f:8e:3b:57:5b:2c:9a:15:
                    b0:50:6c:7d:78:92:2d:c4:6f:04:b7:a9:fd:d6:48:
                    7a:24:55:ee:9d:53:13:6e:ec:0a:f5:f8:63:e4:d0:
                    11:e1:8e:a8:9d:e6:17:8b:b0:a3:0a:f8:0d:a5:5d:
                    a1:22:71:3d:03:76:04:e0:88:db:f8:65:dd:4a:0d:
                    2e:19:78:29:d2:82:62:b2:58:36:a7:2b:83:3f:f0:
                    91:e3:3b:7f:e5:31:7e:bc:07:1f:9f:fb:48:0d:63:
                    b1:a7:16:c5:88:43:58:07:bc:79:34:18:1d:79:44:
                    4c:af:39:5a:eb:6e:3f:48:64:94:26:d1:86:1e:92:
                    f0:a0:c5:1b:9a:cb:2c:ec:79:4b:ce:f0:49:37:d7:
                    85:6d:4b:be:87:5d:6f:c7:ad:3f:45:ae:5d:ce:a3:
                    3f:e1
                Exponent: 65537 (0x10001)
        X509v3 extensions:
            X509v3 Subject Key Identifier: 
                C4:32:5B:14:A3:2B:00:79:E2:53:E8:65:FA:A9:72:1C:63:3C:6D:1B
            X509v3 Authority Key Identifier: 
                keyid:C4:32:5B:14:A3:2B:00:79:E2:53:E8:65:FA:A9:72:1C:63:3C:6D:1B

            X509v3 Basic Constraints: 
                CA:TRUE
    Signature Algorithm: sha256WithRSAEncryption
         6e:22:5f:ed:3a:fa:38:3d:ee:de:44:1f:38:08:4f:4f:f9:39:
         a8:3a:de:a3:68:31:58:0a:8f:8e:2e:a5:46:81:27:83:57:97:
         ae:6e:58:bb:d7:6f:bf:b4:f3:77:05:4b:4e:ec:0b:f9:2a:d0:
         55:b4:28:39:ff:2d:2b:24:b3:0a:82:1f:86:31:0c:78:e1:fd:
         94:8c:20:ab:24:84:89:a0:09:f0:f7:6b:cf:85:ef:ad:65:d2:
         39:44:2a:0b:31:58:62:ff:d9:3b:06:42:9d:9c:62:40:cf:50:
         77:92:23:3a:a2:b9:8b:59:09:44:b9:cd:fa:72:e8:44:5d:b5:
         d1:a1:de:0f:2e:1a:79:51:e8:92:ce:b1:86:b5:7c:01:45:5e:
         9c:7d:e0:b5:ed:92:17:43:50:d4:d6:d4:d7:3d:68:86:7b:e1:
         1d:0b:12:c5:b4:6a:f0:0a:f2:41:94:98:bc:18:de:af:76:be:
         cb:e8:71:11:b5:68:ed:51:84:20:41:db:8e:76:03:cb:10:7f:
         84:7d:8f:37:c8:a9:b1:a7:45:99:eb:8d:9d:11:f1:48:17:2a:
         1a:32:65:b7:83:f1:fc:93:6f:60:0c:a6:41:ad:a2:fb:79:6a:
         e5:cf:06:18:96:a8:39:2a:52:39:80:ce:29:b2:da:9d:82:7e:
         9c:60:03:3e
-----BEGIN CERTIFICATE-----
MIIDXTCCAkWgAwIBAgIJAI5wd6wxtVhgMA0GCSqGSIb3DQEBCwUAMEUxCzAJBgNV
BAYTAkFVMRMwEQYDVQQIDApTb21lLVN0YXRlMSEwHwYDVQQKDBhJbnRlcm5ldCBX
aWRnaXRzIFB0eSBMdGQwHhcNMTcwOTAxMTIyNjE0WhcNMTcxMDAxMTIyNjE0WjBF
MQswCQYDVQQGEwJBVTETMBEGA1UECAwKU29tZS1TdGF0ZTEhMB8GA1UECgwYSW50
ZXJuZXQgV2lkZ2l0cyBQdHkgTHRkMIIBIjANBgkqhkiG9w0BAQEFAAOCAQ8AMIIB
CgKCAQEAof3qZ5Gn4mEoMXyisNETrvjQFecRrAbNHSba6H+yKUS1YHCG62st7iA1
kOhd8yTU/0nw5adHxWgizA7DEYg/3Sb6IsSN97ix6KxaBcHX0oQMAGyGWPntDaPq
ezxGRROGH447V1ssmhWwUGx9eJItxG8Et6n91kh6JFXunVMTbuwK9fhj5NAR4Y6o
neYXi7CjCvgNpV2hInE9A3YE4Ijb+GXdSg0uGXgp0oJislg2pyuDP/CR4zt/5TF+
vAcfn/tIDWOxpxbFiENYB7x5NBgdeURMrzla624/SGSUJtGGHpLwoMUbmsss7HlL
zvBJN9eFbUu+h11vx60/Ra5dzqM/4QIDAQABo1AwTjAdBgNVHQ4EFgQUxDJbFKMr
AHniU+hl+qlyHGM8bRswHwYDVR0jBBgwFoAUxDJbFKMrAHniU+hl+qlyHGM8bRsw
DAYDVR0TBAUwAwEB/zANBgkqhkiG9w0BAQsFAAOCAQEAbiJf7Tr6OD3u3kQfOAhP
T/k5qDreo2gxWAqPji6lRoEng1eXrm5Yu9dvv7TzdwVLTuwL+SrQVbQoOf8tKySz
CoIfhjEMeOH9lIwgqySEiaAJ8Pdrz4XvrWXSOUQqCzFYYv/ZOwZCnZxiQM9Qd5Ij
OqK5i1kJRLnN+nLoRF210aHeDy4aeVHoks6xhrV8AUVenH3gte2SF0NQ1NbU1z1o
hnvhHQsSxbRq8AryQZSYvBjer3a+y+hxEbVo7VGEIEHbjnYDyxB/hH2PN8ipsadF
meuNnRHxSBcqGjJlt4Px/JNvYAymQa2i+3lq5c8GGJaoOSpSOYDOKbLanYJ+nGAD
Pg==
-----END CERTIFICATE-----
